Certificate:
    Data:
        Version: 3 (0x2)
        Serial Number:
            4e:48:8f:b3:c7:a3:0e:4b:d7:73:8d:a2:44:12:a7:64
        Signature Algorithm: sha256WithRSAEncryption
        Issuer: CN=Easy-RSA CA
        Validity
            Not Before: Jul 13 07:15:22 2023 GMT
            Not After : Jun 27 07:15:22 2026 GMT
        Subject: CN=vpn-server
        Subject Public Key Info:
            Public Key Algorithm: rsaEncryption
                RSA Public-Key: (2048 bit)
                Modulus:
                    00:c8:ef:6c:01:ad:28:f3:f6:4f:36:17:55:45:c9:
                    d3:29:7f:e8:79:76:11:50:d0:88:0a:90:21:9b:3a:
                    e1:6b:18:9d:33:44:59:50:1d:44:69:5a:be:6e:6a:
                    f0:ee:c9:84:90:24:6f:48:18:93:b8:b9:a9:37:08:
                    21:26:59:25:e8:31:1f:28:d5:8c:11:d1:41:b6:c0:
                    76:d9:04:0c:dd:42:42:85:88:90:a6:f7:22:d6:1e:
                    65:67:f2:e4:9e:49:22:a9:4a:46:27:80:45:12:a3:
                    62:b2:c2:c1:05:4b:91:4d:b4:57:f7:65:69:7b:13:
                    84:fb:0c:81:57:aa:2a:ec:55:02:c8:33:62:53:97:
                    06:4e:28:31:96:63:6b:bc:81:64:19:5a:94:5a:0f:
                    c7:89:f8:da:a3:36:62:85:90:b6:9f:52:7d:0e:54:
                    90:cf:ff:89:8a:1b:59:bb:4c:de:3e:8a:9b:95:45:
                    fd:3d:e2:b9:a1:34:b8:f5:a2:aa:dd:60:9b:5b:66:
                    8d:4f:a2:5a:44:54:62:bc:e1:ce:14:37:4d:dd:7e:
                    37:78:5e:99:51:cc:17:75:79:8e:a0:30:09:a6:e7:
                    b7:57:e6:f5:41:9b:d9:72:e9:ac:af:c2:07:93:a5:
                    7c:e8:b7:ae:92:c3:ec:60:12:94:a2:e7:7d:89:e9:
                    3b:bf
                Exponent: 65537 (0x10001)
        X509v3 extensions:
            X509v3 Basic Constraints: 
                CA:FALSE
            X509v3 Subject Key Identifier: 
                54:5F:02:20:46:A8:E5:CC:53:58:A6:B5:D7:7D:45:A8:D8:0F:9C:5A
            X509v3 Authority Key Identifier: 
                keyid:56:03:13:DE:20:19:BA:E4:9A:E9:DB:CC:87:9B:46:8C:52:C3:A8:E4
                DirName:/CN=Easy-RSA CA
                serial:66:9D:2A:A6:7F:7F:98:B8:6E:D5:28:92:5A:1F:97:FB:B2:26:BB:3D

            X509v3 Extended Key Usage: 
                TLS Web Server Authentication
            X509v3 Key Usage: 
                Digital Signature, Key Encipherment
            X509v3 Subject Alternative Name: 
                DNS:vpn-server
    Signature Algorithm: sha256WithRSAEncryption
         8f:a9:60:15:18:ad:12:48:11:55:1f:aa:63:d1:d3:d8:c7:c5:
         6f:1c:38:70:8f:8e:8d:7c:5a:c3:6a:7e:fa:70:e9:12:94:fe:
         c2:92:63:98:a6:06:4c:55:4f:e4:08:6a:be:52:28:48:20:83:
         a0:a3:d9:e5:c5:a2:db:2f:da:ba:a1:c1:a0:7c:1d:75:ed:d4:
         15:c1:c2:2c:12:11:71:a5:1c:09:86:99:aa:0e:89:ea:c1:5b:
         49:b3:29:80:4d:ad:99:8a:34:9b:a5:70:ae:c5:e0:a6:0e:ad:
         18:f8:ec:2d:9d:74:00:90:01:96:b4:7c:2c:75:de:cc:ef:b7:
         fc:b8:7c:63:fa:e1:b3:e4:11:41:f2:90:e9:08:ef:f0:6a:c3:
         02:0e:a7:96:5a:a3:00:e6:a3:94:79:71:57:cb:43:18:2b:69:
         10:69:26:c9:d4:2a:d2:1d:4b:b4:0c:42:e5:69:aa:47:27:b5:
         3b:81:67:2c:3e:c1:18:5e:97:46:74:2b:89:72:bb:bc:a6:30:
         a6:03:c2:71:93:6c:33:7f:52:82:a3:84:93:24:e0:90:8a:91:
         79:fa:26:05:05:2e:57:5a:24:ee:0c:d2:a2:32:e8:b4:fb:d7:
         b3:59:af:27:d6:7c:c5:d5:2e:ad:f6:7c:5c:e3:57:53:14:c7:
         52:2c:f8:44
-----BEGIN CERTIFICATE-----
MIIDbzCCAlegAwIBAgIQTkiPs8ejDkvXc42iRBKnZDANBgkqhkiG9w0BAQsFADAW
MRQwEgYDVQQDDAtFYXN5LVJTQSBDQTAeFw0yMzA3MTMwNzE1MjJaFw0yNjA2Mjcw
NzE1MjJaMBUxEzARBgNVBAMMCnZwbi1zZXJ2ZXIwggEiMA0GCSqGSIb3DQEBAQUA
A4IBDwAwggEKAoIBAQDI72wBrSjz9k82F1VFydMpf+h5dhFQ0IgKkCGbOuFrGJ0z
RFlQHURpWr5uavDuyYSQJG9IGJO4uak3CCEmWSXoMR8o1YwR0UG2wHbZBAzdQkKF
iJCm9yLWHmVn8uSeSSKpSkYngEUSo2KywsEFS5FNtFf3ZWl7E4T7DIFXqirsVQLI
M2JTlwZOKDGWY2u8gWQZWpRaD8eJ+NqjNmKFkLafUn0OVJDP/4mKG1m7TN4+ipuV
Rf094rmhNLj1oqrdYJtbZo1PolpEVGK84c4UN03dfjd4XplRzBd1eY6gMAmm57dX
5vVBm9ly6ayvwgeTpXzot66Sw+xgEpSi532J6Tu/AgMBAAGjgbkwgbYwCQYDVR0T
BAIwADAdBgNVHQ4EFgQUVF8CIEao5cxTWKa1131FqNgPnFowUQYDVR0jBEowSIAU
VgMT3iAZuuSa6dvMh5tGjFLDqOShGqQYMBYxFDASBgNVBAMMC0Vhc3ktUlNBIENB
ghRmnSqmf3+YuG7VKJJaH5f7sia7PTATBgNVHSUEDDAKBggrBgEFBQcDATALBgNV
HQ8EBAMCBaAwFQYDVR0RBA4wDIIKdnBuLXNlcnZlcjANBgkqhkiG9w0BAQsFAAOC
AQEAj6lgFRitEkgRVR+qY9HT2MfFbxw4cI+OjXxaw2p++nDpEpT+wpJjmKYGTFVP
5AhqvlIoSCCDoKPZ5cWi2y/auqHBoHwdde3UFcHCLBIRcaUcCYaZqg6J6sFbSbMp
gE2tmYo0m6VwrsXgpg6tGPjsLZ10AJABlrR8LHXezO+3/Lh8Y/rhs+QRQfKQ6Qjv
8GrDAg6nllqjAOajlHlxV8tDGCtpEGkmydQq0h1LtAxC5WmqRye1O4FnLD7BGF6X
RnQriXK7vKYwpgPCcZNsM39SgqOEkyTgkIqRefomBQUuV1ok7gzSojLotPvXs1mv
J9Z8xdUurfZ8XONXUxTHUiz4RA==
-----END CERTIFICATE-----
